target datalayout = "e-m:e-p270:32:32-p271:32:32-p272:64:64-i64:64-i128:128-f80:128-n8:16:32:64-S128"
target triple = "x86_64-pc-linux-gnu"

%struct.jsmn_parser = type { i32, i32, i32 }
%struct.jsmntok = type { i32, i32, i32, i32 }
%struct.Settings = type { i32, i32, i32, float, i32, i32, i8, i8, i8, i8, i8, i8, i8, i8, i8, i8, i8, i8, i8, i8, i8, i8, i8, i8, i8, i8 }

@_ZL8fileName = internal global ptr @.str.22, align 8
@.str.4 = private unnamed_addr constant [5 x i8] c"true\00", align 1
@.str.5 = private unnamed_addr constant [6 x i8] c"false\00", align 1
@.str.19 = private unnamed_addr constant [12 x i8] c"sampleIndex\00", align 1
@.str.20 = private unnamed_addr constant [11 x i8] c"drawShapes\00", align 1
@.str.21 = private unnamed_addr constant [11 x i8] c"drawJoints\00", align 1
@.str.23 = private unnamed_addr constant [3 x i8] c"rb\00", align 1

; Function Attrs: mustprogress nounwind uwtable
define internal noundef i32 @_ZL6jsoneqPKcP7jsmntokS0_(ptr noundef %0, ptr noundef %1, ptr noundef %2) #2 {
  %4 = alloca i32, align 4
  %5 = alloca ptr, align 8
  %6 = alloca ptr, align 8
  %7 = alloca ptr, align 8
  store ptr %0, ptr %5, align 8, !tbaa !9
  store ptr %1, ptr %6, align 8, !tbaa !13
  store ptr %2, ptr %7, align 8, !tbaa !9
  %8 = load ptr, ptr %6, align 8, !tbaa !13
  %9 = getelementptr inbounds nuw %struct.jsmntok, ptr %8, i32 0, i32 0
  %10 = load i32, ptr %9, align 4, !tbaa !25
  %11 = icmp eq i32 %10, 4
  br i1 %11, label %12, label %43

12:                                               ; preds = %3
  %13 = load ptr, ptr %7, align 8, !tbaa !9
  %14 = call i64 @strlen(ptr noundef %13) #8
  %15 = trunc i64 %14 to i32
  %16 = load ptr, ptr %6, align 8, !tbaa !13
  %17 = getelementptr inbounds nuw %struct.jsmntok, ptr %16, i32 0, i32 2
  %18 = load i32, ptr %17, align 4, !tbaa !28
  %19 = load ptr, ptr %6, align 8, !tbaa !13
  %20 = getelementptr inbounds nuw %struct.jsmntok, ptr %19, i32 0, i32 1
  %21 = load i32, ptr %20, align 4, !tbaa !26
  %22 = sub nsw i32 %18, %21
  %23 = icmp eq i32 %15, %22
  br i1 %23, label %24, label %43

24:                                               ; preds = %12
  %25 = load ptr, ptr %5, align 8, !tbaa !9
  %26 = load ptr, ptr %6, align 8, !tbaa !13
  %27 = getelementptr inbounds nuw %struct.jsmntok, ptr %26, i32 0, i32 1
  %28 = load i32, ptr %27, align 4, !tbaa !26
  %29 = sext i32 %28 to i64
  %30 = getelementptr inbounds i8, ptr %25, i64 %29
  %31 = load ptr, ptr %7, align 8, !tbaa !9
  %32 = load ptr, ptr %6, align 8, !tbaa !13
  %33 = getelementptr inbounds nuw %struct.jsmntok, ptr %32, i32 0, i32 2
  %34 = load i32, ptr %33, align 4, !tbaa !28
  %35 = load ptr, ptr %6, align 8, !tbaa !13
  %36 = getelementptr inbounds nuw %struct.jsmntok, ptr %35, i32 0, i32 1
  %37 = load i32, ptr %36, align 4, !tbaa !26
  %38 = sub nsw i32 %34, %37
  %39 = sext i32 %38 to i64
  %40 = call i32 @strncmp(ptr noundef %30, ptr noundef %31, i64 noundef %39) #8
  %41 = icmp eq i32 %40, 0
  br i1 %41, label %42, label %43

42:                                               ; preds = %24
  store i32 0, ptr %4, align 4
  br label %44

43:                                               ; preds = %24, %12, %3
  store i32 -1, ptr %4, align 4
  br label %44

44:                                               ; preds = %43, %42
  %45 = load i32, ptr %4, align 4
  ret i32 %45
}

; Function Attrs: mustprogress nounwind uwtable
define dso_local void @jsmn_init(ptr noundef %0) #2 {
  %2 = alloca ptr, align 8
  store ptr %0, ptr %2, align 8, !tbaa !4
  %3 = load ptr, ptr %2, align 8, !tbaa !4
  %4 = getelementptr inbounds nuw %struct.jsmn_parser, ptr %3, i32 0, i32 0
  store i32 0, ptr %4, align 4, !tbaa !19
  %5 = load ptr, ptr %2, align 8, !tbaa !4
  %6 = getelementptr inbounds nuw %struct.jsmn_parser, ptr %5, i32 0, i32 1
  store i32 0, ptr %6, align 4, !tbaa !17
  %7 = load ptr, ptr %2, align 8, !tbaa !4
  %8 = getelementptr inbounds nuw %struct.jsmn_parser, ptr %7, i32 0, i32 2
  store i32 -1, ptr %8, align 4, !tbaa !21
  ret void
}

; Function Attrs: mustprogress uwtable
define internal noundef zeroext i1 @_ZL8ReadFileRPcRiPKc(ptr noundef nonnull align 8 dereferenceable(8) %0, ptr noundef nonnull align 4 dereferenceable(4) %1, ptr noundef %2) #0 {
  %4 = alloca i1, align 1
  %5 = alloca ptr, align 8
  %6 = alloca ptr, align 8
  %7 = alloca ptr, align 8
  %8 = alloca ptr, align 8
  %9 = alloca i32, align 4
  %10 = alloca i64, align 8
  store ptr %0, ptr %5, align 8, !tbaa !63
  store ptr %1, ptr %6, align 8, !tbaa !65
  store ptr %2, ptr %7, align 8, !tbaa !9
  call void @llvm.lifetime.start.p0(i64 8, ptr %8) #7
  %11 = load ptr, ptr %7, align 8, !tbaa !9
  %12 = call noalias ptr @fopen(ptr noundef %11, ptr noundef @.str.23)
  store ptr %12, ptr %8, align 8, !tbaa !40
  %13 = load ptr, ptr %8, align 8, !tbaa !40
  %14 = icmp eq ptr %13, null
  br i1 %14, label %15, label %16

15:                                               ; preds = %3
  store i1 false, ptr %4, align 1
  store i32 1, ptr %9, align 4
  br label %51

16:                                               ; preds = %3
  %17 = load ptr, ptr %8, align 8, !tbaa !40
  %18 = call i32 @fseek(ptr noundef %17, i64 noundef 0, i32 noundef 2)
  %19 = load ptr, ptr %8, align 8, !tbaa !40
  %20 = call i64 @ftell(ptr noundef %19)
  %21 = trunc i64 %20 to i32
  %22 = load ptr, ptr %6, align 8, !tbaa !65
  store i32 %21, ptr %22, align 4, !tbaa !15
  %23 = load ptr, ptr %8, align 8, !tbaa !40
  %24 = call i32 @fseek(ptr noundef %23, i64 noundef 0, i32 noundef 0)
  %25 = load ptr, ptr %6, align 8, !tbaa !65
  %26 = load i32, ptr %25, align 4, !tbaa !15
  %27 = icmp eq i32 %26, 0
  br i1 %27, label %28, label %29

28:                                               ; preds = %16
  store i1 false, ptr %4, align 1
  store i32 1, ptr %9, align 4
  br label %51

29:                                               ; preds = %16
  %30 = load ptr, ptr %6, align 8, !tbaa !65
  %31 = load i32, ptr %30, align 4, !tbaa !15
  %32 = add nsw i32 %31, 1
  %33 = sext i32 %32 to i64
  %34 = call noalias ptr @malloc(i64 noundef %33) #9
  %35 = load ptr, ptr %5, align 8, !tbaa !63
  store ptr %34, ptr %35, align 8, !tbaa !9
  call void @llvm.lifetime.start.p0(i64 8, ptr %10) #7
  %36 = load ptr, ptr %5, align 8, !tbaa !63
  %37 = load ptr, ptr %36, align 8, !tbaa !9
  %38 = load ptr, ptr %6, align 8, !tbaa !65
  %39 = load i32, ptr %38, align 4, !tbaa !15
  %40 = sext i32 %39 to i64
  %41 = load ptr, ptr %8, align 8, !tbaa !40
  %42 = call i64 @fread(ptr noundef %37, i64 noundef %40, i64 noundef 1, ptr noundef %41)
  store i64 %42, ptr %10, align 8, !tbaa !11
  %43 = load ptr, ptr %8, align 8, !tbaa !40
  %44 = call i32 @fclose(ptr noundef %43)
  %45 = load ptr, ptr %5, align 8, !tbaa !63
  %46 = load ptr, ptr %45, align 8, !tbaa !9
  %47 = load ptr, ptr %6, align 8, !tbaa !65
  %48 = load i32, ptr %47, align 4, !tbaa !15
  %49 = sext i32 %48 to i64
  %50 = getelementptr inbounds i8, ptr %46, i64 %49
  store i8 0, ptr %50, align 1, !tbaa !20
  store i1 true, ptr %4, align 1
  store i32 1, ptr %9, align 4
  call void @llvm.lifetime.end.p0(i64 8, ptr %10) #7
  br label %51

51:                                               ; preds = %29, %28, %15
  call void @llvm.lifetime.end.p0(i64 8, ptr %8) #7
  %52 = load i1, ptr %4, align 1
  ret i1 %52
}

; Function Attrs: mustprogress uwtable
define dso_local void @_ZN8Settings4LoadEv(ptr noundef nonnull align 4 dereferenceable(44) %0) #0 align 2 {
  %2 = alloca ptr, align 8
  %3 = alloca ptr, align 8
  %4 = alloca i32, align 4
  %5 = alloca i8, align 1
  %6 = alloca i32, align 4
  %7 = alloca %struct.jsmn_parser, align 4
  %8 = alloca [32 x %struct.jsmntok], align 16
  %9 = alloca i32, align 4
  %10 = alloca [32 x i8], align 16
  %11 = alloca i32, align 4
  %12 = alloca i32, align 4
  %13 = alloca ptr, align 8
  %14 = alloca ptr, align 8
  %15 = alloca ptr, align 8
  %16 = alloca ptr, align 8
  store ptr %0, ptr %2, align 8, !tbaa !38
  %17 = load ptr, ptr %2, align 8
  call void @llvm.lifetime.start.p0(i64 8, ptr %3) #7
  store ptr null, ptr %3, align 8, !tbaa !9
  call void @llvm.lifetime.start.p0(i64 4, ptr %4) #7
  store i32 0, ptr %4, align 4, !tbaa !15
  call void @llvm.lifetime.start.p0(i64 1, ptr %5) #7
  %18 = load ptr, ptr @_ZL8fileName, align 8, !tbaa !9
  %19 = call noundef zeroext i1 @_ZL8ReadFileRPcRiPKc(ptr noundef nonnull align 8 dereferenceable(8) %3, ptr noundef nonnull align 4 dereferenceable(4) %4, ptr noundef %18)
  %20 = zext i1 %19 to i8
  store i8 %20, ptr %5, align 1, !tbaa !61
  %21 = load i8, ptr %5, align 1, !tbaa !61, !range !47, !noundef !48
  %22 = trunc i8 %21 to i1
  %23 = zext i1 %22 to i32
  %24 = icmp eq i32 %23, 0
  br i1 %24, label %25, label %26

25:                                               ; preds = %1
  store i32 1, ptr %6, align 4
  br label %147

26:                                               ; preds = %1
  call void @llvm.lifetime.start.p0(i64 12, ptr %7) #7
  call void @llvm.lifetime.start.p0(i64 512, ptr %8) #7
  call void @jsmn_init(ptr noundef %7)
  call void @llvm.lifetime.start.p0(i64 4, ptr %9) #7
  %27 = load ptr, ptr %3, align 8, !tbaa !9
  %28 = load i32, ptr %4, align 4, !tbaa !15
  %29 = sext i32 %28 to i64
  %30 = getelementptr inbounds [32 x %struct.jsmntok], ptr %8, i64 0, i64 0
  %31 = call i32 @jsmn_parse(ptr noundef %7, ptr noundef %27, i64 noundef %29, ptr noundef %30, i32 noundef 32)
  store i32 %31, ptr %9, align 4, !tbaa !15
  call void @llvm.lifetime.start.p0(i64 32, ptr %10) #7
  call void @llvm.lifetime.start.p0(i64 4, ptr %11) #7
  store i32 0, ptr %11, align 4, !tbaa !15
  br label %32

32:                                               ; preds = %142, %26
  %33 = load i32, ptr %11, align 4, !tbaa !15
  %34 = load i32, ptr %9, align 4, !tbaa !15
  %35 = icmp slt i32 %33, %34
  br i1 %35, label %37, label %36

36:                                               ; preds = %32
  store i32 2, ptr %6, align 4
  call void @llvm.lifetime.end.p0(i64 4, ptr %11) #7
  br label %145

37:                                               ; preds = %32
  %38 = load ptr, ptr %3, align 8, !tbaa !9
  %39 = load i32, ptr %11, align 4, !tbaa !15
  %40 = sext i32 %39 to i64
  %41 = getelementptr inbounds [32 x %struct.jsmntok], ptr %8, i64 0, i64 %40
  %42 = call noundef i32 @_ZL6jsoneqPKcP7jsmntokS0_(ptr noundef %38, ptr noundef %41, ptr noundef @.str.19)
  %43 = icmp eq i32 %42, 0
  br i1 %43, label %44, label %79

44:                                               ; preds = %37
  call void @llvm.lifetime.start.p0(i64 4, ptr %12) #7
  %45 = load i32, ptr %11, align 4, !tbaa !15
  %46 = add nsw i32 %45, 1
  %47 = sext i32 %46 to i64
  %48 = getelementptr inbounds [32 x %struct.jsmntok], ptr %8, i64 0, i64 %47
  %49 = getelementptr inbounds nuw %struct.jsmntok, ptr %48, i32 0, i32 2
  %50 = load i32, ptr %49, align 8, !tbaa !28
  %51 = load i32, ptr %11, align 4, !tbaa !15
  %52 = add nsw i32 %51, 1
  %53 = sext i32 %52 to i64
  %54 = getelementptr inbounds [32 x %struct.jsmntok], ptr %8, i64 0, i64 %53
  %55 = getelementptr inbounds nuw %struct.jsmntok, ptr %54, i32 0, i32 1
  %56 = load i32, ptr %55, align 4, !tbaa !26
  %57 = sub nsw i32 %50, %56
  store i32 %57, ptr %12, align 4, !tbaa !15
  call void @llvm.lifetime.start.p0(i64 8, ptr %13) #7
  %58 = load ptr, ptr %3, align 8, !tbaa !9
  %59 = load i32, ptr %11, align 4, !tbaa !15
  %60 = add nsw i32 %59, 1
  %61 = sext i32 %60 to i64
  %62 = getelementptr inbounds [32 x %struct.jsmntok], ptr %8, i64 0, i64 %61
  %63 = getelementptr inbounds nuw %struct.jsmntok, ptr %62, i32 0, i32 1
  %64 = load i32, ptr %63, align 4, !tbaa !26
  %65 = sext i32 %64 to i64
  %66 = getelementptr inbounds i8, ptr %58, i64 %65
  store ptr %66, ptr %13, align 8, !tbaa !9
  %67 = getelementptr inbounds [32 x i8], ptr %10, i64 0, i64 0
  %68 = load ptr, ptr %13, align 8, !tbaa !9
  %69 = load i32, ptr %12, align 4, !tbaa !15
  %70 = sext i32 %69 to i64
  %71 = call ptr @strncpy(ptr noundef %67, ptr noundef %68, i64 noundef %70) #7
  %72 = load i32, ptr %12, align 4, !tbaa !15
  %73 = sext i32 %72 to i64
  %74 = getelementptr inbounds [32 x i8], ptr %10, i64 0, i64 %73
  store i8 0, ptr %74, align 1, !tbaa !20
  call void @llvm.lifetime.start.p0(i64 8, ptr %14) #7
  %75 = getelementptr inbounds [32 x i8], ptr %10, i64 0, i64 0
  %76 = call i64 @strtol(ptr noundef %75, ptr noundef %14, i32 noundef 10) #7
  %77 = trunc i64 %76 to i32
  %78 = getelementptr inbounds nuw %struct.Settings, ptr %17, i32 0, i32 0
  store i32 %77, ptr %78, align 4, !tbaa !42
  call void @llvm.lifetime.end.p0(i64 8, ptr %14) #7
  call void @llvm.lifetime.end.p0(i64 8, ptr %13) #7
  call void @llvm.lifetime.end.p0(i64 4, ptr %12) #7
  br label %141

79:                                               ; preds = %37
  %80 = load ptr, ptr %3, align 8, !tbaa !9
  %81 = load i32, ptr %11, align 4, !tbaa !15
  %82 = sext i32 %81 to i64
  %83 = getelementptr inbounds [32 x %struct.jsmntok], ptr %8, i64 0, i64 %82
  %84 = call noundef i32 @_ZL6jsoneqPKcP7jsmntokS0_(ptr noundef %80, ptr noundef %83, ptr noundef @.str.20)
  %85 = icmp eq i32 %84, 0
  br i1 %85, label %86, label %109

86:                                               ; preds = %79
  call void @llvm.lifetime.start.p0(i64 8, ptr %15) #7
  %87 = load ptr, ptr %3, align 8, !tbaa !9
  %88 = load i32, ptr %11, align 4, !tbaa !15
  %89 = add nsw i32 %88, 1
  %90 = sext i32 %89 to i64
  %91 = getelementptr inbounds [32 x %struct.jsmntok], ptr %8, i64 0, i64 %90
  %92 = getelementptr inbounds nuw %struct.jsmntok, ptr %91, i32 0, i32 1
  %93 = load i32, ptr %92, align 4, !tbaa !26
  %94 = sext i32 %93 to i64
  %95 = getelementptr inbounds i8, ptr %87, i64 %94
  store ptr %95, ptr %15, align 8, !tbaa !9
  %96 = load ptr, ptr %15, align 8, !tbaa !9
  %97 = call i32 @strncmp(ptr noundef %96, ptr noundef @.str.4, i64 noundef 4) #8
  %98 = icmp eq i32 %97, 0
  br i1 %98, label %99, label %101

99:                                               ; preds = %86
  %100 = getelementptr inbounds nuw %struct.Settings, ptr %17, i32 0, i32 7
  store i8 1, ptr %100, align 1, !tbaa !46
  br label %108

101:                                              ; preds = %86
  %102 = load ptr, ptr %15, align 8, !tbaa !9
  %103 = call i32 @strncmp(ptr noundef %102, ptr noundef @.str.5, i64 noundef 5) #8
  %104 = icmp eq i32 %103, 0
  br i1 %104, label %105, label %107

105:                                              ; preds = %101
  %106 = getelementptr inbounds nuw %struct.Settings, ptr %17, i32 0, i32 7
  store i8 0, ptr %106, align 1, !tbaa !46
  br label %107

107:                                              ; preds = %105, %101
  br label %108

108:                                              ; preds = %107, %99
  call void @llvm.lifetime.end.p0(i64 8, ptr %15) #7
  br label %140

109:                                              ; preds = %79
  %110 = load ptr, ptr %3, align 8, !tbaa !9
  %111 = load i32, ptr %11, align 4, !tbaa !15
  %112 = sext i32 %111 to i64
  %113 = getelementptr inbounds [32 x %struct.jsmntok], ptr %8, i64 0, i64 %112
  %114 = call noundef i32 @_ZL6jsoneqPKcP7jsmntokS0_(ptr noundef %110, ptr noundef %113, ptr noundef @.str.21)
  %115 = icmp eq i32 %114, 0
  br i1 %115, label %116, label %139

116:                                              ; preds = %109
  call void @llvm.lifetime.start.p0(i64 8, ptr %16) #7
  %117 = load ptr, ptr %3, align 8, !tbaa !9
  %118 = load i32, ptr %11, align 4, !tbaa !15
  %119 = add nsw i32 %118, 1
  %120 = sext i32 %119 to i64
  %121 = getelementptr inbounds [32 x %struct.jsmntok], ptr %8, i64 0, i64 %120
  %122 = getelementptr inbounds nuw %struct.jsmntok, ptr %121, i32 0, i32 1
  %123 = load i32, ptr %122, align 4, !tbaa !26
  %124 = sext i32 %123 to i64
  %125 = getelementptr inbounds i8, ptr %117, i64 %124
  store ptr %125, ptr %16, align 8, !tbaa !9
  %126 = load ptr, ptr %16, align 8, !tbaa !9
  %127 = call i32 @strncmp(ptr noundef %126, ptr noundef @.str.4, i64 noundef 4) #8
  %128 = icmp eq i32 %127, 0
  br i1 %128, label %129, label %131

129:                                              ; preds = %116
  %130 = getelementptr inbounds nuw %struct.Settings, ptr %17, i32 0, i32 8
  store i8 1, ptr %130, align 2, !tbaa !49
  br label %138

131:                                              ; preds = %116
  %132 = load ptr, ptr %16, align 8, !tbaa !9
  %133 = call i32 @strncmp(ptr noundef %132, ptr noundef @.str.5, i64 noundef 5) #8
  %134 = icmp eq i32 %133, 0
  br i1 %134, label %135, label %137

135:                                              ; preds = %131
  %136 = getelementptr inbounds nuw %struct.Settings, ptr %17, i32 0, i32 8
  store i8 0, ptr %136, align 2, !tbaa !49
  br label %137

137:                                              ; preds = %135, %131
  br label %138

138:                                              ; preds = %137, %129
  call void @llvm.lifetime.end.p0(i64 8, ptr %16) #7
  br label %139

139:                                              ; preds = %138, %109
  br label %140

140:                                              ; preds = %139, %108
  br label %141

141:                                              ; preds = %140, %44
  br label %142

142:                                              ; preds = %141
  %143 = load i32, ptr %11, align 4, !tbaa !15
  %144 = add nsw i32 %143, 1
  store i32 %144, ptr %11, align 4, !tbaa !15
  br label %32, !llvm.loop !62

145:                                              ; preds = %36
  %146 = load ptr, ptr %3, align 8, !tbaa !9
  call void @free(ptr noundef %146) #7
  call void @llvm.lifetime.end.p0(i64 32, ptr %10) #7
  call void @llvm.lifetime.end.p0(i64 4, ptr %9) #7
  call void @llvm.lifetime.end.p0(i64 512, ptr %8) #7
  call void @llvm.lifetime.end.p0(i64 12, ptr %7) #7
  store i32 0, ptr %6, align 4
  br label %147

147:                                              ; preds = %145, %25
  call void @llvm.lifetime.end.p0(i64 1, ptr %5) #7
  call void @llvm.lifetime.end.p0(i64 4, ptr %4) #7
  call void @llvm.lifetime.end.p0(i64 8, ptr %3) #7
  %148 = load i32, ptr %6, align 4
  switch i32 %148, label %150 [
    i32 0, label %149
    i32 1, label %149
  ]

149:                                              ; preds = %147, %147
  ret void

150:                                              ; preds = %147
  unreachable
}