; Function Attrs: mustprogress nounwind uwtable
define dso_local void @_ZN8Settings4LoadEv(ptr noundef nonnull writeonly align 4 captures(none) dereferenceable(44) %0) local_unnamed_addr #5 align 2 {
  %2 = alloca %struct.jsmn_parser, align 4
  %3 = alloca [32 x %struct.jsmntok], align 16
  %4 = alloca [32 x i8], align 16
  %5 = alloca ptr, align 8
  %6 = tail call noalias ptr @fopen(ptr noundef nonnull @.str.22, ptr noundef nonnull @.str.23)
  %7 = icmp eq ptr %6, null
  br i1 %7, label %_ZL8ReadFileRPcRiPKc.exit.thread, label %8

8:                                                ; preds = %1
  %9 = tail call i32 @fseek(ptr noundef nonnull %6, i64 noundef 0, i32 noundef 2)
  %10 = tail call i64 @ftell(ptr noundef nonnull %6)
  %11 = tail call i32 @fseek(ptr noundef nonnull %6, i64 noundef 0, i32 noundef 0)
  %12 = and i64 %10, 4294967295
  %13 = icmp eq i64 %12, 0
  br i1 %13, label %_ZL8ReadFileRPcRiPKc.exit.thread, label %14

14:                                               ; preds = %8
  %15 = shl i64 %10, 32
  %sext = add i64 %15, 4294967296
  %16 = ashr exact i64 %sext, 32
  %17 = tail call noalias ptr @malloc(i64 noundef %16) #13
  %18 = ashr exact i64 %15, 32
  %19 = tail call i64 @fread(ptr noundef %17, i64 noundef %18, i64 noundef 1, ptr noundef nonnull %6)
  %20 = tail call i32 @fclose(ptr noundef nonnull %6)
  %21 = getelementptr inbounds i8, ptr %17, i64 %18
  store i8 0, ptr %21, align 1, !tbaa !10
  call void @llvm.lifetime.start.p0(i64 12, ptr nonnull %2) #12
  call void @llvm.lifetime.start.p0(i64 512, ptr nonnull %3) #12
  store i32 0, ptr %2, align 4, !tbaa !9
  %22 = getelementptr inbounds nuw i8, ptr %2, i64 4
  store i32 0, ptr %22, align 4, !tbaa !4
  %23 = getelementptr inbounds nuw i8, ptr %2, i64 8
  store i32 -1, ptr %23, align 4, !tbaa !15
  %24 = call i32 @jsmn_parse(ptr noundef nonnull %2, ptr noundef %17, i64 noundef %18, ptr noundef nonnull %3, i32 noundef 32)
  call void @llvm.lifetime.start.p0(i64 32, ptr nonnull %4) #12
  %25 = icmp sgt i32 %24, 0
  br i1 %25, label %.lr.ph, label %._crit_edge

.lr.ph:                                           ; preds = %14
  %26 = getelementptr inbounds nuw i8, ptr %0, i64 26
  %27 = getelementptr inbounds nuw i8, ptr %0, i64 25
  %wide.trip.count = zext nneg i32 %24 to i64
  br label %28

._crit_edge:                                      ; preds = %_ZL6jsoneqPKcP7jsmntokS0_.exit25, %14
  call void @free(ptr noundef %17) #12
  call void @llvm.lifetime.end.p0(i64 32, ptr nonnull %4) #12
  call void @llvm.lifetime.end.p0(i64 512, ptr nonnull %3) #12
  call void @llvm.lifetime.end.p0(i64 12, ptr nonnull %2) #12
  br label %_ZL8ReadFileRPcRiPKc.exit.thread

28:                                               ; preds = %.lr.ph, %_ZL6jsoneqPKcP7jsmntokS0_.exit25
  %indvars.iv = phi i64 [ 0, %.lr.ph ], [ %indvars.iv.next, %_ZL6jsoneqPKcP7jsmntokS0_.exit25 ]
  %29 = getelementptr inbounds nuw [32 x %struct.jsmntok], ptr %3, i64 0, i64 %indvars.iv
  %30 = load i32, ptr %29, align 16, !tbaa !16
  %31 = icmp eq i32 %30, 4
  br i1 %31, label %32, label %_ZL6jsoneqPKcP7jsmntokS0_.exit25

32:                                               ; preds = %28
  %33 = getelementptr inbounds nuw i8, ptr %29, i64 8
  %34 = load i32, ptr %33, align 8, !tbaa !11
  %35 = getelementptr inbounds nuw i8, ptr %29, i64 4
  %36 = load i32, ptr %35, align 4, !tbaa !17
  %37 = sub nsw i32 %34, %36
  switch i32 %37, label %_ZL6jsoneqPKcP7jsmntokS0_.exit25 [
    i32 11, label %38
    i32 10, label %58
  ]

38:                                               ; preds = %32
  %39 = sext i32 %36 to i64
  %40 = getelementptr inbounds i8, ptr %17, i64 %39
  %41 = call i32 @strncmp(ptr noundef nonnull readonly dereferenceable(1) %40, ptr noundef nonnull dereferenceable(12) @.str.19, i64 noundef 11) #14
  %42 = icmp eq i32 %41, 0
  br i1 %42, label %43, label %_ZL6jsoneqPKcP7jsmntokS0_.exit25

43:                                               ; preds = %38
  %44 = add nuw nsw i64 %indvars.iv, 1
  %45 = getelementptr inbounds nuw [32 x %struct.jsmntok], ptr %3, i64 0, i64 %44
  %46 = getelementptr inbounds nuw i8, ptr %45, i64 8
  %47 = load i32, ptr %46, align 8, !tbaa !11
  %48 = getelementptr inbounds nuw i8, ptr %45, i64 4
  %49 = load i32, ptr %48, align 4, !tbaa !17
  %50 = sub nsw i32 %47, %49
  %51 = sext i32 %49 to i64
  %52 = getelementptr inbounds i8, ptr %17, i64 %51
  %53 = sext i32 %50 to i64
  %54 = call ptr @strncpy(ptr noundef nonnull %4, ptr noundef %52, i64 noundef %53) #12
  %55 = getelementptr inbounds [32 x i8], ptr %4, i64 0, i64 %53
  store i8 0, ptr %55, align 1, !tbaa !10
  call void @llvm.lifetime.start.p0(i64 8, ptr nonnull %5) #12
  %56 = call i64 @strtol(ptr noundef nonnull %4, ptr noundef nonnull %5, i32 noundef 10) #12
  %57 = trunc i64 %56 to i32
  store i32 %57, ptr %0, align 4, !tbaa !27
  call void @llvm.lifetime.end.p0(i64 8, ptr nonnull %5) #12
  br label %_ZL6jsoneqPKcP7jsmntokS0_.exit25

58:                                               ; preds = %32
  %59 = sext i32 %36 to i64
  %60 = getelementptr inbounds i8, ptr %17, i64 %59
  %61 = call i32 @strncmp(ptr noundef nonnull readonly dereferenceable(1) %60, ptr noundef nonnull dereferenceable(11) @.str.20, i64 noundef 10) #14
  %62 = icmp eq i32 %61, 0
  br i1 %62, label %63, label %76

63:                                               ; preds = %58
  %64 = add nuw nsw i64 %indvars.iv, 1
  %65 = getelementptr inbounds nuw [32 x %struct.jsmntok], ptr %3, i64 0, i64 %64, i32 1
  %66 = load i32, ptr %65, align 4, !tbaa !17
  %67 = sext i32 %66 to i64
  %68 = getelementptr inbounds i8, ptr %17, i64 %67
  %69 = call i32 @strncmp(ptr noundef nonnull dereferenceable(1) %68, ptr noundef nonnull dereferenceable(5) @.str.4, i64 noundef 4) #14
  %70 = icmp eq i32 %69, 0
  br i1 %70, label %71, label %72

71:                                               ; preds = %63
  store i8 1, ptr %27, align 1, !tbaa !31
  br label %_ZL6jsoneqPKcP7jsmntokS0_.exit25

72:                                               ; preds = %63
  %73 = call i32 @strncmp(ptr noundef nonnull dereferenceable(1) %68, ptr noundef nonnull dereferenceable(6) @.str.5, i64 noundef 5) #14
  %74 = icmp eq i32 %73, 0
  br i1 %74, label %75, label %_ZL6jsoneqPKcP7jsmntokS0_.exit25

75:                                               ; preds = %72
  store i8 0, ptr %27, align 1, !tbaa !31
  br label %_ZL6jsoneqPKcP7jsmntokS0_.exit25

76:                                               ; preds = %58
  %77 = sext i32 %36 to i64
  %78 = getelementptr inbounds i8, ptr %17, i64 %77
  %79 = call i32 @strncmp(ptr noundef nonnull readonly dereferenceable(1) %78, ptr noundef nonnull dereferenceable(11) @.str.21, i64 noundef 10) #14
  %80 = icmp eq i32 %79, 0
  br i1 %80, label %81, label %_ZL6jsoneqPKcP7jsmntokS0_.exit25

81:                                               ; preds = %76
  %82 = add nuw nsw i64 %indvars.iv, 1
  %83 = getelementptr inbounds nuw [32 x %struct.jsmntok], ptr %3, i64 0, i64 %82, i32 1
  %84 = load i32, ptr %83, align 4, !tbaa !17
  %85 = sext i32 %84 to i64
  %86 = getelementptr inbounds i8, ptr %17, i64 %85
  %87 = call i32 @strncmp(ptr noundef nonnull dereferenceable(1) %86, ptr noundef nonnull dereferenceable(5) @.str.4, i64 noundef 4) #14
  %88 = icmp eq i32 %87, 0
  br i1 %88, label %89, label %90

89:                                               ; preds = %81
  store i8 1, ptr %26, align 2, !tbaa !34
  br label %_ZL6jsoneqPKcP7jsmntokS0_.exit25

90:                                               ; preds = %81
  %91 = call i32 @strncmp(ptr noundef nonnull dereferenceable(1) %86, ptr noundef nonnull dereferenceable(6) @.str.5, i64 noundef 5) #14
  %92 = icmp eq i32 %91, 0
  br i1 %92, label %93, label %_ZL6jsoneqPKcP7jsmntokS0_.exit25

93:                                               ; preds = %90
  store i8 0, ptr %26, align 2, !tbaa !34
  br label %_ZL6jsoneqPKcP7jsmntokS0_.exit25

_ZL6jsoneqPKcP7jsmntokS0_.exit25:                 ; preds = %32, %38, %28, %76, %89, %93, %90, %71, %75, %72, %43
  %indvars.iv.next = add nuw nsw i64 %indvars.iv, 1
  %exitcond.not = icmp eq i64 %indvars.iv.next, %wide.trip.count
  br i1 %exitcond.not, label %._crit_edge, label %28, !llvm.loop !46

_ZL8ReadFileRPcRiPKc.exit.thread:                 ; preds = %8, %1, %._crit_edge
  ret void
}